target datalayout = "e-m:e-p270:32:32-p271:32:32-p272:64:64-i64:64-i128:128-f80:128-n8:16:32:64-S128"
target triple = "x86_64-pc-linux-gnu"

%"class.std::__cxx11::basic_string" = type { %"struct.std::__cxx11::basic_string<char>::_Alloc_hider", i64, %union.anon }
%"struct.std::__cxx11::basic_string<char>::_Alloc_hider" = type { ptr }
%union.anon = type { i64, [8 x i8] }
%class.StatementAssign = type { %class.Statement, i32, ptr, ptr, ptr, ptr, %"class.std::__cxx11::basic_string", %"class.std::__cxx11::basic_string" }
%class.Statement = type { ptr, i32, i32, ptr, ptr }
%"class.std::vector.96" = type { %"struct.std::_Vector_base.97" }
%"struct.std::_Vector_base.97" = type { %"struct.std::_Vector_base<const ExpressionVariable *, std::allocator<const ExpressionVariable *>>::_Vector_impl" }
%"struct.std::_Vector_base<const ExpressionVariable *, std::allocator<const ExpressionVariable *>>::_Vector_impl" = type { %"struct.std::_Vector_base<const ExpressionVariable *, std::allocator<const ExpressionVariable *>>::_Vector_impl_data" }
%"struct.std::_Vector_base<const ExpressionVariable *, std::allocator<const ExpressionVariable *>>::_Vector_impl_data" = type { ptr, ptr, ptr }

; Function Attrs: mustprogress uwtable
define dso_local void @_ZNK15StatementAssign21get_dereferenced_ptrsEv(ptr dead_on_unwind noalias writable sret(%"class.std::vector.96") align 8 %0, ptr noundef nonnull align 8 dereferenceable(136) %1) unnamed_addr #5 align 2 {
  %3 = alloca ptr, align 8
  %4 = alloca ptr, align 8
  store ptr %0, ptr %3, align 8
  store ptr %1, ptr %4, align 8
  %5 = load ptr, ptr %4, align 8
  %6 = getelementptr inbounds %class.StatementAssign, ptr %5, i32 0, i32 3
  %7 = load ptr, ptr %6, align 8
  %8 = load ptr, ptr %7, align 8
  %9 = getelementptr inbounds ptr, ptr %8, i64 9
  %10 = load ptr, ptr %9, align 8
  call void %10(ptr dead_on_unwind writable sret(%"class.std::vector.96") align 8 %0, ptr noundef nonnull align 8 dereferenceable(24) %7)
  ret void
}