; Function Attrs: mustprogress uwtable
define dso_local void @_ZNK15StatementAssign21get_dereferenced_ptrsEv(ptr dead_on_unwind noalias writable sret(%"class.std::vector.96") align 8 %0, ptr nocapture noundef nonnull readonly align 8 dereferenceable(136) %1) unnamed_addr #4 align 2 {
  %3 = getelementptr inbounds i8, ptr %1, i64 48
  %4 = load ptr, ptr %3, align 8
  %5 = load ptr, ptr %4, align 8
  %6 = getelementptr inbounds i8, ptr %5, i64 72
  %7 = load ptr, ptr %6, align 8
  tail call void %7(ptr dead_on_unwind writable sret(%"class.std::vector.96") align 8 %0, ptr noundef nonnull align 8 dereferenceable(24) %4)
  ret void
}